V@media -sass-debug-info{filename{}line{font-family:\u005c000031}}\u000a.neighborhoods-table {\u000a  margin: 50px auto;\u000a  width: 800px;\u000a}\u000a\u000a@media -sass-debug-info{filename{}line{font-family:\u005c000032}}\u000a.neighborhoods-table ._table {\u000a  margin-top: 10px;\u000a}\u000a
p1
.