V@media -sass-debug-info{filename{}line{font-family:\u005c000031}}\u000a.page-navigation-bar {\u000a  height: 60px;\u000a  background-color: #fff;\u000a}\u000a\u000a@media -sass-debug-info{filename{}line{font-family:\u005c000033}}\u000abody {\u000a  background-color: #e5e5ea;\u000a}\u000a
p1
.