V@media -sass-debug-info{filename{}line{font-family:\u005c000031}}\u000a.dashboard-wrapper {\u000a  margin: 20px 50px;\u000a  border: 1px solid #bbb;\u000a}\u000a\u000a@media -sass-debug-info{filename{}line{font-family:\u005c000032}}\u000a.username {\u000a  font-size: 30px;\u000a  font-weight: 700;\u000a  color: #404041;\u000a}\u000a
p1
.